; Function Attrs: mustprogress nofree norecurse nosync nounwind willreturn memory(argmem: readwrite) uwtable
define hidden void @_ZN6hermes2vm7HadesGC10ttiReachedEv(ptr nocapture noundef nonnull align 8 dereferenceable(8152) %this) unnamed_addr #2 align 2 {
entry:
  %revertToYGAtTTI_ = getelementptr inbounds i8, ptr %this, i64 7697
  %0 = load i8, ptr %revertToYGAtTTI_, align 1
  %1 = and i8 %0, 1
  %tobool.not = icmp eq i8 %1, 0
  br i1 %tobool.not, label %if.end, label %if.then

if.then:                                          ; preds = %entry
  %promoteYGToOG_ = getelementptr inbounds i8, ptr %this, i64 7696
  store i8 0, ptr %promoteYGToOG_, align 8
  br label %if.end

if.end:                                           ; preds = %if.then, %entry
  ret void
}